; Function Attrs: mustprogress nofree norecurse nosync nounwind willreturn memory(argmem: write) uwtable
define hidden void @_ZN17itableMethodEntry10initializeEP13InstanceKlassP6Method(ptr nocapture noundef nonnull writeonly align 8 dereferenceable(8) %0, ptr nocapture noundef readnone %1, ptr noundef %2) local_unnamed_addr #7 align 2 {
  %4 = icmp eq ptr %2, null
  br i1 %4, label %6, label %5

5:                                                ; preds = %3
  store ptr %2, ptr %0, align 8
  br label %6

6:                                                ; preds = %3, %5
  ret void
}